; Function Attrs: nounwind uwtable
define range(i32 0, 2) i32 @BN_mod_mul(ptr noundef %0, ptr noundef %1, ptr noundef %2, ptr noundef %3, ptr noundef %4) local_unnamed_addr #0 {
  tail call void @BN_CTX_start(ptr noundef %4) #4
  %6 = tail call ptr @BN_CTX_get(ptr noundef %4) #4
  %7 = icmp eq ptr %6, null
  br i1 %7, label %BN_nnmod.exit.thread24, label %8

8:                                                ; preds = %5
  %9 = icmp eq ptr %1, %2
  br i1 %9, label %10, label %12

10:                                               ; preds = %8
  %11 = tail call i32 @BN_sqr(ptr noundef nonnull %6, ptr noundef %1, ptr noundef %4) #4
  %.not19 = icmp eq i32 %11, 0
  br i1 %.not19, label %BN_nnmod.exit.thread24, label %14

12:                                               ; preds = %8
  %13 = tail call i32 @BN_mul(ptr noundef nonnull %6, ptr noundef %1, ptr noundef %2, ptr noundef %4) #4
  %.not = icmp eq i32 %13, 0
  br i1 %.not, label %BN_nnmod.exit.thread24, label %14

14:                                               ; preds = %12, %10
  %15 = icmp eq ptr %0, %3
  br i1 %15, label %16, label %17

16:                                               ; preds = %14
  tail call void @ERR_new() #4
  tail call void @ERR_set_debug(ptr noundef nonnull @.str, i32 noundef 22, ptr noundef nonnull @__func__.BN_nnmod) #4
  tail call void (i32, i32, ptr, ...) @ERR_set_error(i32 noundef 3, i32 noundef 524550, ptr noundef null) #4
  br label %BN_nnmod.exit.thread

17:                                               ; preds = %14
  %18 = tail call i32 @BN_div(ptr noundef null, ptr noundef %0, ptr noundef nonnull %6, ptr noundef %3, ptr noundef %4) #4
  %.not.i = icmp eq i32 %18, 0
  br i1 %.not.i, label %BN_nnmod.exit.thread, label %19

19:                                               ; preds = %17
  %20 = getelementptr inbounds nuw i8, ptr %0, i64 16
  %21 = load i32, ptr %20, align 8, !tbaa !3
  %.not13.i = icmp eq i32 %21, 0
  br i1 %.not13.i, label %BN_nnmod.exit.thread24, label %BN_nnmod.exit

BN_nnmod.exit:                                    ; preds = %19
  %22 = getelementptr inbounds nuw i8, ptr %3, i64 16
  %23 = load i32, ptr %22, align 8, !tbaa !3
  %.not14.i = icmp eq i32 %23, 0
  %24 = select i1 %.not14.i, ptr @BN_add, ptr @BN_sub
  %25 = tail call i32 %24(ptr noundef nonnull %0, ptr noundef nonnull %0, ptr noundef %3) #4, !callees !10
  %.fr = freeze i32 %25
  %.not20 = icmp eq i32 %.fr, 0
  br i1 %.not20, label %BN_nnmod.exit.thread, label %BN_nnmod.exit.thread24

BN_nnmod.exit.thread:                             ; preds = %17, %16, %BN_nnmod.exit
  br label %BN_nnmod.exit.thread24

BN_nnmod.exit.thread24:                           ; preds = %19, %BN_nnmod.exit.thread, %BN_nnmod.exit, %12, %10, %5
  %.0 = phi i32 [ 0, %5 ], [ 0, %10 ], [ 0, %12 ], [ 0, %BN_nnmod.exit.thread ], [ 1, %BN_nnmod.exit ], [ 1, %19 ]
  tail call void @BN_CTX_end(ptr noundef %4) #4
  ret i32 %.0
}